target datalayout = "e-m:e-p270:32:32-p271:32:32-p272:64:64-i64:64-i128:128-f80:128-n8:16:32:64-S128"
target triple = "x86_64-pc-linux-gnu"

%struct.RString = type { %struct.RBasic, i64, %union.anon }
%struct.RBasic = type { i64, i64 }
%union.anon = type { %struct.anon }
%struct.anon = type { ptr, %union.anon.0 }
%union.anon.0 = type { i64 }
%struct.anon.1 = type { [1 x i8] }
%struct.rb_printf_sfile = type { ptr, i64, i16, i16, %struct.rb_printf_sbuf, ptr, ptr }
%struct.rb_printf_sbuf = type { ptr, i64 }
%struct.__suio = type { ptr, i32, i64 }
%struct.__siov = type { ptr, i64 }
%struct.rbimpl_size_mul_overflow_tag = type { i8, i64 }

@rb_eArgError = external global i64, align 8
@.str.2 = private unnamed_addr constant [18 x i8] c"too big specifier\00", align 1
@rb_eRuntimeError = external global i64, align 8
@.str.47 = private unnamed_addr constant [22 x i8] c"rb_vsprintf reentered\00", align 1
@.str.48 = private unnamed_addr constant [15 x i8] c"too big string\00", align 1

; Function Attrs: inlinehint nounwind sspstrong memory(argmem: readwrite, inaccessiblemem: readwrite) uwtable
define internal void @rbimpl_fl_set_raw_raw(ptr noundef %0, i64 noundef %1) #7 {
  %3 = alloca ptr, align 8
  %4 = alloca i64, align 8
  store ptr %0, ptr %3, align 8, !tbaa !89
  store i64 %1, ptr %4, align 8, !tbaa !14
  %5 = load i64, ptr %4, align 8, !tbaa !14
  %6 = load ptr, ptr %3, align 8, !tbaa !89
  %7 = getelementptr inbounds nuw %struct.RBasic, ptr %6, i32 0, i32 0
  %8 = load i64, ptr %7, align 8, !tbaa !91
  %9 = or i64 %8, %5
  store i64 %9, ptr %7, align 8, !tbaa !91
  ret void
}

; Function Attrs: inlinehint nounwind sspstrong memory(argmem: readwrite, inaccessiblemem: readwrite) uwtable
define internal void @rbimpl_fl_unset_raw_raw(ptr noundef %0, i64 noundef %1) #7 {
  %3 = alloca ptr, align 8
  %4 = alloca i64, align 8
  store ptr %0, ptr %3, align 8, !tbaa !89
  store i64 %1, ptr %4, align 8, !tbaa !14
  %5 = load i64, ptr %4, align 8, !tbaa !14
  %6 = xor i64 %5, -1
  %7 = load ptr, ptr %3, align 8, !tbaa !89
  %8 = getelementptr inbounds nuw %struct.RBasic, ptr %7, i32 0, i32 0
  %9 = load i64, ptr %8, align 8, !tbaa !91
  %10 = and i64 %9, %6
  store i64 %10, ptr %8, align 8, !tbaa !91
  ret void
}

; Function Attrs: inlinehint nounwind sspstrong willreturn memory(read) uwtable
define internal i64 @RSTRING_LEN(i64 noundef %0) #5 {
  %2 = alloca i64, align 8
  store i64 %0, ptr %2, align 8, !tbaa !14
  %3 = load i64, ptr %2, align 8, !tbaa !14
  %4 = inttoptr i64 %3 to ptr
  %5 = getelementptr inbounds nuw %struct.RString, ptr %4, i32 0, i32 1
  %6 = load i64, ptr %5, align 8, !tbaa !49
  ret i64 %6
}

; Function Attrs: inlinehint nounwind sspstrong willreturn memory(read) uwtable
define internal zeroext i1 @RB_FL_ANY_RAW(i64 noundef %0, i64 noundef %1) #5 {
  %3 = alloca i64, align 8
  %4 = alloca i64, align 8
  store i64 %0, ptr %3, align 8, !tbaa !14
  store i64 %1, ptr %4, align 8, !tbaa !14
  %5 = load i64, ptr %3, align 8, !tbaa !14
  %6 = load i64, ptr %4, align 8, !tbaa !14
  %7 = call i64 @RB_FL_TEST_RAW(i64 noundef %5, i64 noundef %6) #27
  %8 = icmp ne i64 %7, 0
  ret i1 %8
}

; Function Attrs: alwaysinline nounwind
define internal ptr @memcpy.inline(ptr noalias nonnull %0, ptr noalias nonnull %1, i64 %2) #6 {
  %4 = alloca ptr, align 8
  %5 = alloca ptr, align 8
  %6 = alloca i64, align 8
  store ptr %0, ptr %4, align 8, !tbaa !53
  store ptr %1, ptr %5, align 8, !tbaa !53
  store i64 %2, ptr %6, align 8, !tbaa !14
  %7 = load ptr, ptr %4, align 8, !tbaa !53
  %8 = load ptr, ptr %5, align 8, !tbaa !53
  %9 = load i64, ptr %6, align 8, !tbaa !14
  %10 = load ptr, ptr %4, align 8, !tbaa !53
  %11 = call i64 @llvm.objectsize.i64.p0(ptr %10, i1 false, i1 true, i1 false)
  %12 = call ptr @__memcpy_chk(ptr noundef %7, ptr noundef %8, i64 noundef %9, i64 noundef %11) #26
  ret ptr %12
}

; Function Attrs: inlinehint nounwind sspstrong willreturn memory(none) uwtable
define internal { i8, i64 } @rbimpl_size_mul_overflow(i64 noundef %0, i64 noundef %1) #8 {
  %3 = alloca %struct.rbimpl_size_mul_overflow_tag, align 8
  %4 = alloca i64, align 8
  %5 = alloca i64, align 8
  store i64 %0, ptr %4, align 8, !tbaa !14
  store i64 %1, ptr %5, align 8, !tbaa !14
  call void @llvm.memset.p0.i64(ptr align 8 %3, i8 0, i64 16, i1 false)
  %6 = load i64, ptr %4, align 8, !tbaa !14
  %7 = load i64, ptr %5, align 8, !tbaa !14
  %8 = getelementptr inbounds nuw %struct.rbimpl_size_mul_overflow_tag, ptr %3, i32 0, i32 1
  %9 = call { i64, i1 } @llvm.umul.with.overflow.i64(i64 %6, i64 %7)
  %10 = extractvalue { i64, i1 } %9, 1
  %11 = extractvalue { i64, i1 } %9, 0
  store i64 %11, ptr %8, align 8
  %12 = getelementptr inbounds nuw %struct.rbimpl_size_mul_overflow_tag, ptr %3, i32 0, i32 0
  %13 = zext i1 %10 to i8
  store i8 %13, ptr %12, align 8, !tbaa !136
  %14 = load { i8, i64 }, ptr %3, align 8
  ret { i8, i64 } %14
}

; Function Attrs: inlinehint nounwind sspstrong uwtable
define internal void @RB_FL_SET_RAW(i64 noundef %0, i64 noundef %1) #4 {
  %3 = alloca i64, align 8
  %4 = alloca i64, align 8
  store i64 %0, ptr %3, align 8, !tbaa !14
  store i64 %1, ptr %4, align 8, !tbaa !14
  %5 = load i64, ptr %3, align 8, !tbaa !14
  %6 = inttoptr i64 %5 to ptr
  %7 = load i64, ptr %4, align 8, !tbaa !14
  call void @rbimpl_fl_set_raw_raw(ptr noundef %6, i64 noundef %7) #28
  ret void
}

; Function Attrs: inlinehint nounwind sspstrong uwtable
define internal void @RB_FL_UNSET_RAW(i64 noundef %0, i64 noundef %1) #4 {
  %3 = alloca i64, align 8
  %4 = alloca i64, align 8
  store i64 %0, ptr %3, align 8, !tbaa !14
  store i64 %1, ptr %4, align 8, !tbaa !14
  %5 = load i64, ptr %3, align 8, !tbaa !14
  %6 = inttoptr i64 %5 to ptr
  %7 = load i64, ptr %4, align 8, !tbaa !14
  call void @rbimpl_fl_unset_raw_raw(ptr noundef %6, i64 noundef %7) #28
  ret void
}

; Function Attrs: inlinehint nounwind sspstrong willreturn memory(read) uwtable
define internal i64 @RB_FL_TEST_RAW(i64 noundef %0, i64 noundef %1) #5 {
  %3 = alloca i64, align 8
  %4 = alloca i64, align 8
  store i64 %0, ptr %3, align 8, !tbaa !14
  store i64 %1, ptr %4, align 8, !tbaa !14
  %5 = load i64, ptr %3, align 8, !tbaa !14
  %6 = inttoptr i64 %5 to ptr
  %7 = getelementptr inbounds nuw %struct.RBasic, ptr %6, i32 0, i32 0
  %8 = load i64, ptr %7, align 8, !tbaa !91
  %9 = load i64, ptr %4, align 8, !tbaa !14
  %10 = and i64 %8, %9
  ret i64 %10
}

; Function Attrs: inlinehint nounwind sspstrong willreturn memory(read, argmem: readwrite) uwtable
define internal void @rbimpl_rstring_getmem(ptr dead_on_unwind noalias writable sret(%struct.RString) align 8 %0, i64 noundef %1) #15 {
  %3 = alloca i64, align 8
  store i64 %1, ptr %3, align 8, !tbaa !14
  %4 = load i64, ptr %3, align 8, !tbaa !14
  %5 = call zeroext i1 @RB_FL_ANY_RAW(i64 noundef %4, i64 noundef 8192) #27
  br i1 %5, label %6, label %9

6:                                                ; preds = %2
  %7 = load i64, ptr %3, align 8, !tbaa !14
  %8 = inttoptr i64 %7 to ptr
  call void @llvm.memcpy.p0.p0.i64(ptr align 8 %0, ptr align 8 %8, i64 40, i1 false), !tbaa.struct !64
  br label %20

9:                                                ; preds = %2
  %10 = load i64, ptr %3, align 8, !tbaa !14
  %11 = call i64 @RSTRING_LEN(i64 noundef %10) #27
  %12 = getelementptr inbounds nuw %struct.RString, ptr %0, i32 0, i32 1
  store i64 %11, ptr %12, align 8, !tbaa !49
  %13 = load i64, ptr %3, align 8, !tbaa !14
  %14 = inttoptr i64 %13 to ptr
  %15 = getelementptr inbounds nuw %struct.RString, ptr %14, i32 0, i32 2
  %16 = getelementptr inbounds nuw %struct.anon.1, ptr %15, i32 0, i32 0
  %17 = getelementptr inbounds [1 x i8], ptr %16, i64 0, i64 0
  %18 = getelementptr inbounds nuw %struct.RString, ptr %0, i32 0, i32 2
  %19 = getelementptr inbounds nuw %struct.anon, ptr %18, i32 0, i32 0
  store ptr %17, ptr %19, align 8, !tbaa !20
  br label %20

20:                                               ; preds = %9, %6
  ret void
}

; Function Attrs: inlinehint nounwind sspstrong memory(argmem: readwrite, inaccessiblemem: readwrite) uwtable
define internal nonnull ptr @ruby_nonempty_memcpy(ptr noundef nonnull %0, ptr noundef %1, i64 noundef %2) #7 {
  %4 = alloca ptr, align 8
  %5 = alloca ptr, align 8
  %6 = alloca ptr, align 8
  %7 = alloca i64, align 8
  store ptr %0, ptr %5, align 8, !tbaa !53
  store ptr %1, ptr %6, align 8, !tbaa !53
  store i64 %2, ptr %7, align 8, !tbaa !14
  %8 = load i64, ptr %7, align 8, !tbaa !14
  %9 = icmp ne i64 %8, 0
  br i1 %9, label %10, label %15

10:                                               ; preds = %3
  %11 = load ptr, ptr %5, align 8, !tbaa !53
  %12 = load ptr, ptr %6, align 8, !tbaa !53
  %13 = load i64, ptr %7, align 8, !tbaa !14
  %14 = call ptr @memcpy.inline(ptr noundef %11, ptr noundef %12, i64 noundef %13) #26
  store ptr %14, ptr %4, align 8
  br label %17

15:                                               ; preds = %3
  %16 = load ptr, ptr %5, align 8, !tbaa !53
  store ptr %16, ptr %4, align 8
  br label %17

17:                                               ; preds = %15, %10
  %18 = load ptr, ptr %4, align 8
  ret ptr %18
}

; Function Attrs: inlinehint nounwind sspstrong uwtable
define internal i64 @rbimpl_size_mul_or_raise(i64 noundef %0, i64 noundef %1) #4 {
  %3 = alloca i64, align 8
  %4 = alloca i64, align 8
  %5 = alloca %struct.rbimpl_size_mul_overflow_tag, align 8
  store i64 %0, ptr %3, align 8, !tbaa !14
  store i64 %1, ptr %4, align 8, !tbaa !14
  call void @llvm.lifetime.start.p0(i64 16, ptr %5) #26
  %6 = load i64, ptr %3, align 8, !tbaa !14
  %7 = load i64, ptr %4, align 8, !tbaa !14
  %8 = call { i8, i64 } @rbimpl_size_mul_overflow(i64 noundef %6, i64 noundef %7) #29
  %9 = getelementptr inbounds nuw { i8, i64 }, ptr %5, i32 0, i32 0
  %10 = extractvalue { i8, i64 } %8, 0
  store i8 %10, ptr %9, align 8
  %11 = getelementptr inbounds nuw { i8, i64 }, ptr %5, i32 0, i32 1
  %12 = extractvalue { i8, i64 } %8, 1
  store i64 %12, ptr %11, align 8
  %13 = getelementptr inbounds nuw %struct.rbimpl_size_mul_overflow_tag, ptr %5, i32 0, i32 0
  %14 = load i8, ptr %13, align 8, !tbaa !136, !range !60, !noundef !61
  %15 = trunc i8 %14 to i1
  %16 = xor i1 %15, true
  %17 = xor i1 %16, true
  %18 = xor i1 %17, true
  %19 = zext i1 %18 to i32
  %20 = sext i32 %19 to i64
  %21 = call i64 @llvm.expect.i64(i64 %20, i64 1)
  %22 = icmp ne i64 %21, 0
  br i1 %22, label %23, label %26

23:                                               ; preds = %2
  %24 = getelementptr inbounds nuw %struct.rbimpl_size_mul_overflow_tag, ptr %5, i32 0, i32 1
  %25 = load i64, ptr %24, align 8, !tbaa !138
  call void @llvm.lifetime.end.p0(i64 16, ptr %5) #26
  ret i64 %25

26:                                               ; preds = %2
  %27 = load i64, ptr %3, align 8, !tbaa !14
  %28 = load i64, ptr %4, align 8, !tbaa !14
  call void @ruby_malloc_size_overflow(i64 noundef %27, i64 noundef %28) #25
  unreachable
}

; Function Attrs: inlinehint nounwind sspstrong uwtable
define internal void @RB_ENC_CODERANGE_SET(i64 noundef %0, i32 noundef %1) #4 {
  %3 = alloca i64, align 8
  %4 = alloca i32, align 4
  store i64 %0, ptr %3, align 8, !tbaa !14
  store i32 %1, ptr %4, align 4, !tbaa !7
  %5 = load i64, ptr %3, align 8, !tbaa !14
  call void @RB_FL_UNSET_RAW(i64 noundef %5, i64 noundef 3145728)
  %6 = load i64, ptr %3, align 8, !tbaa !14
  %7 = load i32, ptr %4, align 4, !tbaa !7
  %8 = zext i32 %7 to i64
  call void @RB_FL_SET_RAW(i64 noundef %6, i64 noundef %8)
  ret void
}

; Function Attrs: inlinehint nounwind sspstrong willreturn memory(read) uwtable
define internal i32 @RB_ENC_CODERANGE(i64 noundef %0) #5 {
  %2 = alloca i64, align 8
  %3 = alloca i64, align 8
  store i64 %0, ptr %2, align 8, !tbaa !14
  call void @llvm.lifetime.start.p0(i64 8, ptr %3) #26
  %4 = load i64, ptr %2, align 8, !tbaa !14
  %5 = call i64 @RB_FL_TEST_RAW(i64 noundef %4, i64 noundef 3145728) #27
  store i64 %5, ptr %3, align 8, !tbaa !14
  %6 = load i64, ptr %3, align 8, !tbaa !14
  %7 = trunc i64 %6 to i32
  call void @llvm.lifetime.end.p0(i64 8, ptr %3) #26
  ret i32 %7
}

; Function Attrs: inlinehint nounwind sspstrong uwtable
define internal ptr @RSTRING_PTR(i64 noundef %0) #4 {
  %2 = alloca i64, align 8
  %3 = alloca ptr, align 8
  %4 = alloca %struct.RString, align 8
  store i64 %0, ptr %2, align 8, !tbaa !14
  call void @llvm.lifetime.start.p0(i64 8, ptr %3) #26
  %5 = load i64, ptr %2, align 8, !tbaa !14
  call void @rbimpl_rstring_getmem(ptr dead_on_unwind writable sret(%struct.RString) align 8 %4, i64 noundef %5) #30
  %6 = getelementptr inbounds nuw %struct.RString, ptr %4, i32 0, i32 2
  %7 = getelementptr inbounds nuw %struct.anon, ptr %6, i32 0, i32 0
  %8 = load ptr, ptr %7, align 8, !tbaa !20
  store ptr %8, ptr %3, align 8, !tbaa !18
  %9 = load ptr, ptr %3, align 8, !tbaa !18
  call void @llvm.lifetime.end.p0(i64 8, ptr %3) #26
  ret ptr %9
}

; Function Attrs: nounwind sspstrong uwtable
define internal i32 @ruby__sfvwrite(ptr noundef %0, ptr noundef %1) #0 {
  %3 = alloca i32, align 4
  %4 = alloca ptr, align 8
  %5 = alloca ptr, align 8
  %6 = alloca ptr, align 8
  %7 = alloca i64, align 8
  %8 = alloca ptr, align 8
  %9 = alloca i64, align 8
  %10 = alloca i64, align 8
  %11 = alloca i64, align 8
  %12 = alloca i64, align 8
  %13 = alloca i32, align 4
  %14 = alloca i32, align 4
  store ptr %0, ptr %4, align 8, !tbaa !97
  store ptr %1, ptr %5, align 8, !tbaa !99
  call void @llvm.lifetime.start.p0(i64 8, ptr %6) #26
  call void @llvm.lifetime.start.p0(i64 8, ptr %7) #26
  %15 = load ptr, ptr %4, align 8, !tbaa !97
  %16 = getelementptr inbounds nuw %struct.rb_printf_sfile, ptr %15, i32 0, i32 4
  %17 = getelementptr inbounds nuw %struct.rb_printf_sbuf, ptr %16, i32 0, i32 0
  %18 = load ptr, ptr %17, align 8, !tbaa !72
  %19 = ptrtoint ptr %18 to i64
  store i64 %19, ptr %7, align 8, !tbaa !14
  call void @llvm.lifetime.start.p0(i64 8, ptr %8) #26
  %20 = load ptr, ptr %4, align 8, !tbaa !97
  %21 = getelementptr inbounds nuw %struct.rb_printf_sfile, ptr %20, i32 0, i32 0
  %22 = load ptr, ptr %21, align 8, !tbaa !71
  store ptr %22, ptr %8, align 8, !tbaa !18
  call void @llvm.lifetime.start.p0(i64 8, ptr %9) #26
  call void @llvm.lifetime.start.p0(i64 8, ptr %10) #26
  call void @llvm.lifetime.start.p0(i64 8, ptr %11) #26
  %23 = load ptr, ptr %8, align 8, !tbaa !18
  %24 = load i64, ptr %7, align 8, !tbaa !14
  %25 = call ptr @RSTRING_PTR(i64 noundef %24)
  %26 = ptrtoint ptr %23 to i64
  %27 = ptrtoint ptr %25 to i64
  %28 = sub i64 %26, %27
  store i64 %28, ptr %11, align 8, !tbaa !14
  call void @llvm.lifetime.start.p0(i64 8, ptr %12) #26
  %29 = load ptr, ptr %4, align 8, !tbaa !97
  %30 = getelementptr inbounds nuw %struct.rb_printf_sfile, ptr %29, i32 0, i32 1
  %31 = load i64, ptr %30, align 8, !tbaa !73
  store i64 %31, ptr %12, align 8, !tbaa !14
  %32 = load i64, ptr %7, align 8, !tbaa !14
  %33 = inttoptr i64 %32 to ptr
  %34 = getelementptr inbounds nuw %struct.RBasic, ptr %33, i32 0, i32 1
  %35 = load i64, ptr %34, align 8, !tbaa !79
  %36 = icmp ne i64 %35, 0
  br i1 %36, label %37, label %39

37:                                               ; preds = %2
  %38 = load i64, ptr @rb_eRuntimeError, align 8, !tbaa !14
  call void (i64, ptr, ...) @rb_raise(i64 noundef %38, ptr noundef @.str.47) #25
  unreachable

39:                                               ; preds = %2
  %40 = load ptr, ptr %5, align 8, !tbaa !99
  %41 = getelementptr inbounds nuw %struct.__suio, ptr %40, i32 0, i32 2
  %42 = load i64, ptr %41, align 8, !tbaa !101
  %43 = icmp eq i64 %42, 0
  br i1 %43, label %44, label %45

44:                                               ; preds = %39
  store i32 0, ptr %3, align 4
  store i32 1, ptr %13, align 4
  br label %125

45:                                               ; preds = %39
  %46 = load ptr, ptr %5, align 8, !tbaa !99
  %47 = getelementptr inbounds nuw %struct.__suio, ptr %46, i32 0, i32 2
  %48 = load i64, ptr %47, align 8, !tbaa !101
  %49 = icmp uge i64 %48, 9223372036854775807
  br i1 %49, label %50, label %52

50:                                               ; preds = %45
  %51 = load i64, ptr @rb_eRuntimeError, align 8, !tbaa !14
  call void (i64, ptr, ...) @rb_raise(i64 noundef %51, ptr noundef @.str.48) #25
  unreachable

52:                                               ; preds = %45
  %53 = load ptr, ptr %5, align 8, !tbaa !99
  %54 = getelementptr inbounds nuw %struct.__suio, ptr %53, i32 0, i32 2
  %55 = load i64, ptr %54, align 8, !tbaa !101
  store i64 %55, ptr %9, align 8, !tbaa !14
  br label %56

56:                                               ; preds = %52
  call void @llvm.lifetime.start.p0(i64 4, ptr %14) #26
  %57 = load i64, ptr %7, align 8, !tbaa !14
  %58 = call i32 @RB_ENC_CODERANGE(i64 noundef %57) #27
  store i32 %58, ptr %14, align 4, !tbaa !7
  br label %59

59:                                               ; preds = %72, %56
  %60 = load i64, ptr %9, align 8, !tbaa !14
  %61 = load i64, ptr %12, align 8, !tbaa !14
  %62 = load i64, ptr %11, align 8, !tbaa !14
  %63 = sub i64 %61, %62
  %64 = icmp sgt i64 %60, %63
  br i1 %64, label %65, label %73

65:                                               ; preds = %59
  %66 = load i64, ptr %12, align 8, !tbaa !14
  %67 = mul i64 %66, 2
  store i64 %67, ptr %12, align 8, !tbaa !14
  %68 = load i64, ptr %12, align 8, !tbaa !14
  %69 = icmp slt i64 %68, 0
  br i1 %69, label %70, label %72

70:                                               ; preds = %65
  %71 = load i64, ptr @rb_eArgError, align 8, !tbaa !14
  call void (i64, ptr, ...) @rb_raise(i64 noundef %71, ptr noundef @.str.2) #25
  unreachable

72:                                               ; preds = %65
  br label %59, !llvm.loop !134

73:                                               ; preds = %59
  %74 = load i64, ptr %7, align 8, !tbaa !14
  %75 = load i64, ptr %12, align 8, !tbaa !14
  %76 = call i64 @rb_str_resize(i64 noundef %74, i64 noundef %75)
  %77 = load i64, ptr %7, align 8, !tbaa !14
  %78 = load i32, ptr %14, align 4, !tbaa !7
  call void @RB_ENC_CODERANGE_SET(i64 noundef %77, i32 noundef %78)
  %79 = load i64, ptr %7, align 8, !tbaa !14
  %80 = call ptr @RSTRING_PTR(i64 noundef %79)
  store ptr %80, ptr %8, align 8, !tbaa !18
  call void @llvm.lifetime.end.p0(i64 4, ptr %14) #26
  br label %81

81:                                               ; preds = %73
  br label %82

82:                                               ; preds = %81
  %83 = load i64, ptr %11, align 8, !tbaa !14
  %84 = load ptr, ptr %8, align 8, !tbaa !18
  %85 = getelementptr i8, ptr %84, i64 %83
  store ptr %85, ptr %8, align 8, !tbaa !18
  %86 = load i64, ptr %12, align 8, !tbaa !14
  %87 = load ptr, ptr %4, align 8, !tbaa !97
  %88 = getelementptr inbounds nuw %struct.rb_printf_sfile, ptr %87, i32 0, i32 1
  store i64 %86, ptr %88, align 8, !tbaa !73
  %89 = load ptr, ptr %5, align 8, !tbaa !99
  %90 = getelementptr inbounds nuw %struct.__suio, ptr %89, i32 0, i32 0
  %91 = load ptr, ptr %90, align 8, !tbaa !104
  store ptr %91, ptr %6, align 8, !tbaa !105
  br label %92

92:                                               ; preds = %111, %82
  %93 = load i64, ptr %9, align 8, !tbaa !14
  %94 = icmp sgt i64 %93, 0
  br i1 %94, label %95, label %114

95:                                               ; preds = %92
  %96 = load ptr, ptr %8, align 8, !tbaa !18
  %97 = load ptr, ptr %6, align 8, !tbaa !105
  %98 = getelementptr inbounds nuw %struct.__siov, ptr %97, i32 0, i32 0
  %99 = load ptr, ptr %98, align 8, !tbaa !106
  %100 = load ptr, ptr %6, align 8, !tbaa !105
  %101 = getelementptr inbounds nuw %struct.__siov, ptr %100, i32 0, i32 1
  %102 = load i64, ptr %101, align 8, !tbaa !108
  store i64 %102, ptr %10, align 8, !tbaa !14
  %103 = call i64 @rbimpl_size_mul_or_raise(i64 noundef 1, i64 noundef %102)
  %104 = call nonnull ptr @ruby_nonempty_memcpy(ptr noundef %96, ptr noundef %99, i64 noundef %103) #28
  %105 = load i64, ptr %10, align 8, !tbaa !14
  %106 = load ptr, ptr %8, align 8, !tbaa !18
  %107 = getelementptr i8, ptr %106, i64 %105
  store ptr %107, ptr %8, align 8, !tbaa !18
  %108 = load i64, ptr %10, align 8, !tbaa !14
  %109 = load i64, ptr %9, align 8, !tbaa !14
  %110 = sub i64 %109, %108
  store i64 %110, ptr %9, align 8, !tbaa !14
  br label %111

111:                                              ; preds = %95
  %112 = load ptr, ptr %6, align 8, !tbaa !105
  %113 = getelementptr %struct.__siov, ptr %112, i32 1
  store ptr %113, ptr %6, align 8, !tbaa !105
  br label %92, !llvm.loop !135

114:                                              ; preds = %92
  %115 = load ptr, ptr %8, align 8, !tbaa !18
  %116 = load ptr, ptr %4, align 8, !tbaa !97
  %117 = getelementptr inbounds nuw %struct.rb_printf_sfile, ptr %116, i32 0, i32 0
  store ptr %115, ptr %117, align 8, !tbaa !71
  %118 = load i64, ptr %7, align 8, !tbaa !14
  %119 = load ptr, ptr %8, align 8, !tbaa !18
  %120 = load i64, ptr %7, align 8, !tbaa !14
  %121 = call ptr @RSTRING_PTR(i64 noundef %120)
  %122 = ptrtoint ptr %119 to i64
  %123 = ptrtoint ptr %121 to i64
  %124 = sub i64 %122, %123
  call void @rb_str_set_len(i64 noundef %118, i64 noundef %124)
  store i32 0, ptr %3, align 4
  store i32 1, ptr %13, align 4
  br label %125

125:                                              ; preds = %114, %44
  call void @llvm.lifetime.end.p0(i64 8, ptr %12) #26
  call void @llvm.lifetime.end.p0(i64 8, ptr %11) #26
  call void @llvm.lifetime.end.p0(i64 8, ptr %10) #26
  call void @llvm.lifetime.end.p0(i64 8, ptr %9) #26
  call void @llvm.lifetime.end.p0(i64 8, ptr %8) #26
  call void @llvm.lifetime.end.p0(i64 8, ptr %7) #26
  call void @llvm.lifetime.end.p0(i64 8, ptr %6) #26
  %126 = load i32, ptr %3, align 4
  ret i32 %126
}