; Function Attrs: nounwind sspstrong uwtable
define internal noundef i32 @ruby__sfvwrite(ptr noundef captures(none) %0, ptr noundef readonly captures(none) %1) #0 {
  %3 = getelementptr inbounds nuw i8, ptr %0, i64 24
  %4 = load ptr, ptr %3, align 8, !tbaa !119
  %5 = ptrtoint ptr %4 to i64
  %6 = load ptr, ptr %0, align 8, !tbaa !118
  %7 = load i64, ptr %4, align 8, !tbaa !11, !noalias !191
  %8 = and i64 %7, 8192
  %.not.i.i = icmp eq i64 %8, 0
  %9 = getelementptr inbounds nuw i8, ptr %4, i64 24
  br i1 %.not.i.i, label %RSTRING_PTR.exit, label %10

10:                                               ; preds = %2
  %.sroa.2.0.copyload.i = load ptr, ptr %9, align 8
  br label %RSTRING_PTR.exit

RSTRING_PTR.exit:                                 ; preds = %2, %10
  %.sroa.2.0.i = phi ptr [ %.sroa.2.0.copyload.i, %10 ], [ %9, %2 ]
  %11 = ptrtoint ptr %6 to i64
  %12 = ptrtoint ptr %.sroa.2.0.i to i64
  %13 = sub i64 %11, %12
  %14 = getelementptr inbounds nuw i8, ptr %0, i64 8
  %15 = load i64, ptr %14, align 8, !tbaa !120
  %16 = getelementptr inbounds nuw i8, ptr %4, i64 8
  %17 = load i64, ptr %16, align 8, !tbaa !127
  %.not = icmp eq i64 %17, 0
  br i1 %.not, label %20, label %18

18:                                               ; preds = %RSTRING_PTR.exit
  %19 = load i64, ptr @rb_eRuntimeError, align 8, !tbaa !7
  tail call void (i64, ptr, ...) @rb_raise(i64 noundef %19, ptr noundef nonnull @.str.47) #20
  unreachable

20:                                               ; preds = %RSTRING_PTR.exit
  %21 = getelementptr inbounds nuw i8, ptr %1, i64 16
  %22 = load i64, ptr %21, align 8, !tbaa !149
  %23 = icmp eq i64 %22, 0
  br i1 %23, label %60, label %24

24:                                               ; preds = %20
  %25 = icmp ugt i64 %22, 9223372036854775806
  br i1 %25, label %26, label %28

26:                                               ; preds = %24
  %27 = load i64, ptr @rb_eRuntimeError, align 8, !tbaa !7
  tail call void (i64, ptr, ...) @rb_raise(i64 noundef %27, ptr noundef nonnull @.str.48) #20
  unreachable

28:                                               ; preds = %24
  %29 = and i64 %7, 3145728
  br label %30

30:                                               ; preds = %33, %28
  %.039 = phi i64 [ %15, %28 ], [ %34, %33 ]
  %31 = sub i64 %.039, %13
  %32 = icmp sgt i64 %22, %31
  br i1 %32, label %33, label %38

33:                                               ; preds = %30
  %34 = shl i64 %.039, 1
  %35 = icmp slt i64 %34, 0
  br i1 %35, label %36, label %30, !llvm.loop !194

36:                                               ; preds = %33
  %37 = load i64, ptr @rb_eArgError, align 8, !tbaa !7
  tail call void (i64, ptr, ...) @rb_raise(i64 noundef %37, ptr noundef nonnull @.str.2) #20
  unreachable

38:                                               ; preds = %30
  %39 = tail call i64 @rb_str_resize(i64 noundef %5, i64 noundef %.039) #21
  %40 = load i64, ptr %4, align 8, !tbaa !11
  %41 = and i64 %40, -3145729
  %42 = or disjoint i64 %41, %29
  store i64 %42, ptr %4, align 8, !tbaa !11
  %43 = and i64 %40, 8192
  %.not.i.i44 = icmp eq i64 %43, 0
  br i1 %.not.i.i44, label %.lr.ph.preheader, label %44

44:                                               ; preds = %38
  %.sroa.2.0.copyload.i45 = load ptr, ptr %9, align 8
  br label %.lr.ph.preheader

.lr.ph.preheader:                                 ; preds = %44, %38
  %.sroa.2.0.i46 = phi ptr [ %.sroa.2.0.copyload.i45, %44 ], [ %9, %38 ]
  store i64 %.039, ptr %14, align 8, !tbaa !120
  %45 = load ptr, ptr %1, align 8, !tbaa !152
  %46 = getelementptr i8, ptr %.sroa.2.0.i46, i64 %13
  br label %.lr.ph

.lr.ph:                                           ; preds = %.lr.ph.preheader, %ruby_nonempty_memcpy.exit
  %.04055 = phi ptr [ %53, %ruby_nonempty_memcpy.exit ], [ %45, %.lr.ph.preheader ]
  %.04154 = phi ptr [ %51, %ruby_nonempty_memcpy.exit ], [ %46, %.lr.ph.preheader ]
  %.04253 = phi i64 [ %52, %ruby_nonempty_memcpy.exit ], [ %22, %.lr.ph.preheader ]
  %47 = getelementptr inbounds nuw i8, ptr %.04055, i64 8
  %48 = load i64, ptr %47, align 8, !tbaa !155
  %.not.i = icmp eq i64 %48, 0
  br i1 %.not.i, label %ruby_nonempty_memcpy.exit, label %49

49:                                               ; preds = %.lr.ph
  %50 = load ptr, ptr %.04055, align 8, !tbaa !153
  tail call void @llvm.memcpy.p0.p0.i64(ptr noundef nonnull align 1 %.04154, ptr noundef nonnull readonly align 1 %50, i64 noundef range(i64 1, 0) %48, i1 noundef false) #21
  br label %ruby_nonempty_memcpy.exit

ruby_nonempty_memcpy.exit:                        ; preds = %.lr.ph, %49
  %51 = getelementptr i8, ptr %.04154, i64 %48
  %52 = sub i64 %.04253, %48
  %53 = getelementptr i8, ptr %.04055, i64 16
  %54 = icmp sgt i64 %52, 0
  br i1 %54, label %.lr.ph, label %._crit_edge, !llvm.loop !195

._crit_edge:                                      ; preds = %ruby_nonempty_memcpy.exit
  %.pre = load i64, ptr %4, align 8, !tbaa !11, !noalias !196
  store ptr %51, ptr %0, align 8, !tbaa !118
  %55 = and i64 %.pre, 8192
  %.not.i.i48 = icmp eq i64 %55, 0
  br i1 %.not.i.i48, label %RSTRING_PTR.exit51, label %56

56:                                               ; preds = %._crit_edge
  %.sroa.2.0.copyload.i49 = load ptr, ptr %9, align 8
  br label %RSTRING_PTR.exit51

RSTRING_PTR.exit51:                               ; preds = %._crit_edge, %56
  %.sroa.2.0.i50 = phi ptr [ %.sroa.2.0.copyload.i49, %56 ], [ %9, %._crit_edge ]
  %57 = ptrtoint ptr %51 to i64
  %58 = ptrtoint ptr %.sroa.2.0.i50 to i64
  %59 = sub i64 %57, %58
  tail call void @rb_str_set_len(i64 noundef %5, i64 noundef %59) #21
  br label %60

60:                                               ; preds = %20, %RSTRING_PTR.exit51
  ret i32 0
}